target datalayout = "e-m:e-p270:32:32-p271:32:32-p272:64:64-i64:64-i128:128-f80:128-n8:16:32:64-S128"
target triple = "x86_64-pc-linux-gnu"

%struct.rsa_pss_params_30_st = type { i32, %struct.anon, i32, i32 }
%struct.anon = type { i32, i32 }

@ossl_rsa_pss_params_30_is_unrestricted.pss_params_cmp = internal global %struct.rsa_pss_params_30_st zeroinitializer, align 4

; Function Attrs: nounwind uwtable
define i32 @ossl_rsa_pss_params_30_is_unrestricted(ptr noundef %0) #0 {
  %2 = alloca ptr, align 8
  store ptr %0, ptr %2, align 8, !tbaa !39
  %3 = load ptr, ptr %2, align 8, !tbaa !39
  %4 = icmp eq ptr %3, null
  br i1 %4, label %9, label %5

5:                                                ; preds = %1
  %6 = load ptr, ptr %2, align 8, !tbaa !39
  %7 = call i32 @memcmp(ptr noundef %6, ptr noundef @ossl_rsa_pss_params_30_is_unrestricted.pss_params_cmp, i64 noundef 20) #6
  %8 = icmp eq i32 %7, 0
  br label %9

9:                                                ; preds = %5, %1
  %10 = phi i1 [ true, %1 ], [ %8, %5 ]
  %11 = zext i1 %10 to i32
  ret i32 %11
}