; Function Attrs: mustprogress nofree nounwind willreturn memory(read, inaccessiblemem: none) uwtable
define range(i32 0, 2) i32 @ossl_rsa_pss_params_30_is_unrestricted(ptr noundef readonly captures(address_is_null) %0) local_unnamed_addr #5 {
  %2 = icmp eq ptr %0, null
  br i1 %2, label %6, label %3

3:                                                ; preds = %1
  %bcmp = tail call i32 @bcmp(ptr noundef nonnull dereferenceable(20) %0, ptr noundef nonnull dereferenceable(20) @ossl_rsa_pss_params_30_is_unrestricted.pss_params_cmp, i64 20)
  %4 = icmp eq i32 %bcmp, 0
  %5 = zext i1 %4 to i32
  br label %6

6:                                                ; preds = %3, %1
  %7 = phi i32 [ 1, %1 ], [ %5, %3 ]
  ret i32 %7
}